; Function Attrs: nounwind uwtable
define internal noundef ptr @cr_getcode(ptr noundef %0, ptr readnone captures(none) %1) #2 {
  %3 = tail call i32 (ptr, ptr, ...) @PySys_Audit(ptr noundef nonnull @.str.47, ptr noundef nonnull @.str.48, ptr noundef %0, ptr noundef nonnull @.str.59) #8
  %4 = icmp slt i32 %3, 0
  br i1 %4, label %_gen_getcode.exit, label %5

5:                                                ; preds = %2
  %6 = getelementptr i8, ptr %0, i64 72
  %.val.i = load i64, ptr %6, align 8, !tbaa !4
  %7 = inttoptr i64 %.val.i to ptr
  %8 = load i32, ptr %7, align 8, !tbaa !4
  %9 = icmp slt i32 %8, 0
  br i1 %9, label %_gen_getcode.exit, label %10

10:                                               ; preds = %5
  %11 = add nuw i32 %8, 1
  store i32 %11, ptr %7, align 8, !tbaa !4
  br label %_gen_getcode.exit

_gen_getcode.exit:                                ; preds = %2, %5, %10
  %.0.i = phi ptr [ null, %2 ], [ %7, %5 ], [ %7, %10 ]
  ret ptr %.0.i
}